target datalayout = "e-m:e-p270:32:32-p271:32:32-p272:64:64-i64:64-i128:128-f80:128-n8:16:32:64-S128"
target triple = "x86_64-pc-linux-gnu"

@.str.386 = private unnamed_addr constant [106 x i8] c"generated/home/dtcxzyw/WorkSpace/Projects/compilers/llvm-opt-benchmark/bench/sdl/SDL/src/gpu/SDL_sysgpu.h\00", align 1
@Texture_GetBlockHeight.sdl_assert_data = internal global { i8, [3 x i8], i32, ptr, ptr, i32, [4 x i8], ptr, ptr } { i8 0, [3 x i8] zeroinitializer, i32 0, ptr @.str.7, ptr null, i32 0, [4 x i8] zeroinitializer, ptr null, ptr null }, align 8
@__func__.Texture_GetBlockHeight = private unnamed_addr constant [23 x i8] c"Texture_GetBlockHeight\00", align 1

; Function Attrs: inlinehint nounwind uwtable
define internal i32 @Texture_GetBlockHeight(i32 noundef %0) #7 {
  %2 = alloca i32, align 4
  %3 = alloca i32, align 4
  %4 = alloca i32, align 4
  %5 = alloca i32, align 4
  store i32 %0, ptr %3, align 4
  %6 = load i32, ptr %3, align 4
  switch i32 %6, label %14 [
    i32 76, label %7
    i32 90, label %7
    i32 104, label %7
    i32 75, label %8
    i32 89, label %8
    i32 103, label %8
    i32 74, label %8
    i32 88, label %8
    i32 102, label %8
    i32 73, label %9
    i32 87, label %9
    i32 101, label %9
    i32 70, label %9
    i32 84, label %9
    i32 98, label %9
    i32 72, label %10
    i32 86, label %10
    i32 100, label %10
    i32 69, label %10
    i32 83, label %10
    i32 97, label %10
    i32 67, label %10
    i32 81, label %10
    i32 95, label %10
    i32 71, label %11
    i32 85, label %11
    i32 99, label %11
    i32 68, label %11
    i32 82, label %11
    i32 96, label %11
    i32 66, label %11
    i32 80, label %11
    i32 94, label %11
    i32 65, label %11
    i32 79, label %11
    i32 93, label %11
    i32 13, label %12
    i32 14, label %12
    i32 15, label %12
    i32 16, label %12
    i32 17, label %12
    i32 18, label %12
    i32 19, label %12
    i32 20, label %12
    i32 54, label %12
    i32 55, label %12
    i32 56, label %12
    i32 57, label %12
    i32 64, label %12
    i32 78, label %12
    i32 92, label %12
    i32 63, label %12
    i32 77, label %12
    i32 91, label %12
    i32 4, label %13
    i32 12, label %13
    i32 9, label %13
    i32 10, label %13
    i32 11, label %13
    i32 8, label %13
    i32 3, label %13
    i32 6, label %13
    i32 7, label %13
    i32 2, label %13
    i32 5, label %13
    i32 1, label %13
    i32 21, label %13
    i32 22, label %13
    i32 23, label %13
    i32 24, label %13
    i32 25, label %13
    i32 26, label %13
    i32 27, label %13
    i32 28, label %13
    i32 29, label %13
    i32 30, label %13
    i32 31, label %13
    i32 32, label %13
    i32 33, label %13
    i32 34, label %13
    i32 35, label %13
    i32 36, label %13
    i32 37, label %13
    i32 38, label %13
    i32 39, label %13
    i32 40, label %13
    i32 41, label %13
    i32 42, label %13
    i32 43, label %13
    i32 44, label %13
    i32 45, label %13
    i32 46, label %13
    i32 47, label %13
    i32 48, label %13
    i32 49, label %13
    i32 50, label %13
    i32 51, label %13
    i32 52, label %13
    i32 53, label %13
    i32 58, label %13
    i32 59, label %13
    i32 60, label %13
    i32 61, label %13
    i32 62, label %13
  ]

7:                                                ; preds = %1, %1, %1
  store i32 12, ptr %2, align 4
  br label %31

8:                                                ; preds = %1, %1, %1, %1, %1, %1
  store i32 10, ptr %2, align 4
  br label %31

9:                                                ; preds = %1, %1, %1, %1, %1, %1
  store i32 8, ptr %2, align 4
  br label %31

10:                                               ; preds = %1, %1, %1, %1, %1, %1, %1, %1, %1
  store i32 6, ptr %2, align 4
  br label %31

11:                                               ; preds = %1, %1, %1, %1, %1, %1, %1, %1, %1, %1, %1, %1
  store i32 5, ptr %2, align 4
  br label %31

12:                                               ; preds = %1, %1, %1, %1, %1, %1, %1, %1, %1, %1, %1, %1, %1, %1, %1, %1, %1, %1
  store i32 4, ptr %2, align 4
  br label %31

13:                                               ; preds = %1, %1, %1, %1, %1, %1, %1, %1, %1, %1, %1, %1, %1, %1, %1, %1, %1, %1, %1, %1, %1, %1, %1, %1, %1, %1, %1, %1, %1, %1, %1, %1, %1, %1, %1, %1, %1, %1, %1, %1, %1, %1, %1, %1, %1, %1, %1, %1, %1, %1
  store i32 1, ptr %2, align 4
  br label %31

14:                                               ; preds = %1
  br label %15

15:                                               ; preds = %14
  br label %16

16:                                               ; preds = %15, %27
  call void @llvm.lifetime.start.p0(i64 4, ptr %4) #6
  %17 = call i32 @SDL_ReportAssertion_REAL(ptr noundef @Texture_GetBlockHeight.sdl_assert_data, ptr noundef @__func__.Texture_GetBlockHeight, ptr noundef @.str.386, i32 noundef 345)
  store i32 %17, ptr %4, align 4
  %18 = load i32, ptr %4, align 4
  %19 = icmp eq i32 %18, 0
  br i1 %19, label %20, label %21

20:                                               ; preds = %16
  store i32 5, ptr %5, align 4
  br label %27

21:                                               ; preds = %16
  %22 = load i32, ptr %4, align 4
  %23 = icmp eq i32 %22, 1
  br i1 %23, label %24, label %25

24:                                               ; preds = %21
  call void @llvm.debugtrap()
  br label %25

25:                                               ; preds = %24, %21
  br label %26

26:                                               ; preds = %25
  store i32 6, ptr %5, align 4
  br label %27

27:                                               ; preds = %26, %20
  call void @llvm.lifetime.end.p0(i64 4, ptr %4) #6
  %28 = load i32, ptr %5, align 4
  switch i32 %28, label %33 [
    i32 5, label %16
    i32 6, label %29
  ]

29:                                               ; preds = %27
  br label %30

30:                                               ; preds = %29
  store i32 0, ptr %2, align 4
  br label %31

31:                                               ; preds = %30, %13, %12, %11, %10, %9, %8, %7
  %32 = load i32, ptr %2, align 4
  ret i32 %32

33:                                               ; preds = %27
  unreachable
}